; Function Attrs: nounwind uwtable
define void @Abc_CollectTopOr_rec(ptr noundef %0, ptr noundef captures(none) %1) local_unnamed_addr #1 {
  %3 = ptrtoint ptr %0 to i64
  %4 = and i64 %3, 1
  %.not17 = icmp eq i64 %4, 0
  br i1 %.not17, label %.lr.ph, label %._crit_edge

.lr.ph:                                           ; preds = %2, %tailrecurse
  %.tr18 = phi ptr [ %61, %tailrecurse ], [ %0, %2 ]
  %5 = getelementptr i8, ptr %.tr18, i64 20
  %.val = load i32, ptr %5, align 4
  %6 = and i32 %.val, 15
  %.not15 = icmp eq i32 %6, 7
  br i1 %.not15, label %tailrecurse, label %._crit_edge

._crit_edge:                                      ; preds = %tailrecurse, %.lr.ph, %2
  %.tr.lcssa = phi ptr [ %0, %2 ], [ %.tr18, %.lr.ph ], [ %61, %tailrecurse ]
  %7 = getelementptr inbounds nuw i8, ptr %1, i64 4
  %8 = load i32, ptr %7, align 4
  %9 = load i32, ptr %1, align 8
  %10 = icmp eq i32 %8, %9
  br i1 %10, label %11, label %.Vec_PtrGrow.exit11_crit_edge.i

.Vec_PtrGrow.exit11_crit_edge.i:                  ; preds = %._crit_edge
  %.phi.trans.insert.i = getelementptr inbounds nuw i8, ptr %1, i64 8
  %.pre.i = load ptr, ptr %.phi.trans.insert.i, align 8
  br label %Vec_PtrPush.exit

11:                                               ; preds = %._crit_edge
  %12 = icmp slt i32 %8, 16
  br i1 %12, label %13, label %21

13:                                               ; preds = %11
  %14 = getelementptr inbounds nuw i8, ptr %1, i64 8
  %15 = load ptr, ptr %14, align 8
  %.not9.i.i = icmp eq ptr %15, null
  br i1 %.not9.i.i, label %18, label %16

16:                                               ; preds = %13
  %17 = tail call dereferenceable_or_null(128) ptr @realloc(ptr noundef nonnull %15, i64 noundef 128) #17
  br label %Vec_PtrGrow.exit.i

18:                                               ; preds = %13
  %19 = tail call noalias dereferenceable_or_null(128) ptr @malloc(i64 noundef 128) #18
  br label %Vec_PtrGrow.exit.i

Vec_PtrGrow.exit.i:                               ; preds = %18, %16
  %20 = phi ptr [ %17, %16 ], [ %19, %18 ]
  store ptr %20, ptr %14, align 8
  store i32 16, ptr %1, align 8
  br label %Vec_PtrPush.exit

21:                                               ; preds = %11
  %22 = shl nuw nsw i32 %8, 1
  %23 = getelementptr inbounds nuw i8, ptr %1, i64 8
  %24 = load ptr, ptr %23, align 8
  %.not9.i10.i = icmp eq ptr %24, null
  %25 = zext nneg i32 %22 to i64
  %26 = shl nuw nsw i64 %25, 3
  br i1 %.not9.i10.i, label %29, label %27

27:                                               ; preds = %21
  %28 = tail call ptr @realloc(ptr noundef nonnull %24, i64 noundef %26) #17
  br label %31

29:                                               ; preds = %21
  %30 = tail call noalias ptr @malloc(i64 noundef %26) #18
  br label %31

31:                                               ; preds = %29, %27
  %32 = phi ptr [ %28, %27 ], [ %30, %29 ]
  store ptr %32, ptr %23, align 8
  store i32 %22, ptr %1, align 8
  br label %Vec_PtrPush.exit

Vec_PtrPush.exit:                                 ; preds = %.Vec_PtrGrow.exit11_crit_edge.i, %Vec_PtrGrow.exit.i, %31
  %33 = phi ptr [ %.pre.i, %.Vec_PtrGrow.exit11_crit_edge.i ], [ %32, %31 ], [ %20, %Vec_PtrGrow.exit.i ]
  %34 = load i32, ptr %7, align 4
  %35 = add nsw i32 %34, 1
  store i32 %35, ptr %7, align 4
  %36 = sext i32 %34 to i64
  %37 = getelementptr inbounds ptr, ptr %33, i64 %36
  store ptr %.tr.lcssa, ptr %37, align 8
  ret void

tailrecurse:                                      ; preds = %.lr.ph
  %.val.i = load ptr, ptr %.tr18, align 8
  %38 = getelementptr i8, ptr %.tr18, i64 32
  %.val2.i = load ptr, ptr %38, align 8
  %39 = getelementptr i8, ptr %.val.i, i64 32
  %.val.val.i = load ptr, ptr %39, align 8
  %.val2.val.i = load i32, ptr %.val2.i, align 4
  %40 = getelementptr i8, ptr %.val.val.i, i64 8
  %.val.val.val.i = load ptr, ptr %40, align 8
  %41 = sext i32 %.val2.val.i to i64
  %42 = getelementptr inbounds ptr, ptr %.val.val.val.i, i64 %41
  %43 = load ptr, ptr %42, align 8
  %44 = lshr i32 %.val, 10
  %45 = and i32 %44, 1
  %46 = ptrtoint ptr %43 to i64
  %47 = zext nneg i32 %45 to i64
  %48 = xor i64 %46, %47
  %49 = inttoptr i64 %48 to ptr
  tail call void @Abc_CollectTopOr_rec(ptr noundef %49, ptr noundef %1)
  %.val.i9 = load ptr, ptr %.tr18, align 8
  %.val2.i10 = load ptr, ptr %38, align 8
  %50 = getelementptr i8, ptr %.val.i9, i64 32
  %.val.val.i11 = load ptr, ptr %50, align 8
  %51 = getelementptr i8, ptr %.val2.i10, i64 4
  %.val2.val.i12 = load i32, ptr %51, align 4
  %52 = getelementptr i8, ptr %.val.val.i11, i64 8
  %.val.val.val.i13 = load ptr, ptr %52, align 8
  %53 = sext i32 %.val2.val.i12 to i64
  %54 = getelementptr inbounds ptr, ptr %.val.val.val.i13, i64 %53
  %55 = load ptr, ptr %54, align 8
  %.val3.i14 = load i32, ptr %5, align 4
  %56 = lshr i32 %.val3.i14, 11
  %57 = and i32 %56, 1
  %58 = ptrtoint ptr %55 to i64
  %59 = zext nneg i32 %57 to i64
  %60 = xor i64 %59, %58
  %61 = inttoptr i64 %60 to ptr
  %62 = and i64 %60, 1
  %.not = icmp eq i64 %62, 0
  br i1 %.not, label %.lr.ph, label %._crit_edge
}